target datalayout = "e-m:e-p270:32:32-p271:32:32-p272:64:64-i64:64-i128:128-f80:128-n8:16:32:64-S128"
target triple = "x86_64-pc-linux-gnu"

%struct.FunctionCallInfoBaseData = type { ptr, ptr, ptr, i32, i8, i16, [0 x %struct.NullableDatum] }
%struct.NullableDatum = type { i64, i8 }

@.str.1 = private unnamed_addr constant [11 x i8] c"tsginidx.c\00", align 1
@.str.2 = private unnamed_addr constant [45 x i8] c"gin_extract_tsquery requires seven arguments\00", align 1
@__func__.gin_extract_tsquery_5args = private unnamed_addr constant [26 x i8] c"gin_extract_tsquery_5args\00", align 1

; Function Attrs: nounwind uwtable
define dso_local i64 @gin_extract_tsquery_5args(ptr noundef %0) #0 {
  %2 = alloca ptr, align 8
  store ptr %0, ptr %2, align 8
  %3 = load ptr, ptr %2, align 8
  %4 = getelementptr inbounds nuw %struct.FunctionCallInfoBaseData, ptr %3, i32 0, i32 5
  %5 = load i16, ptr %4, align 2
  %6 = sext i16 %5 to i32
  %7 = icmp slt i32 %6, 7
  br i1 %7, label %8, label %18

8:                                                ; preds = %1
  br label %9

9:                                                ; preds = %8
  br i1 true, label %10, label %12

10:                                               ; preds = %9
  %11 = call zeroext i1 @errstart_cold(i32 noundef 21, ptr noundef null) #6
  br i1 %11, label %14, label %16

12:                                               ; preds = %9
  %13 = call zeroext i1 @errstart(i32 noundef 21, ptr noundef null)
  br i1 %13, label %14, label %16

14:                                               ; preds = %12, %10
  %15 = call i32 (ptr, ...) @errmsg_internal(ptr noundef @.str.2)
  call void @errfinish(ptr noundef @.str.1, i32 noundef 319, ptr noundef @__func__.gin_extract_tsquery_5args)
  br label %16

16:                                               ; preds = %14, %12, %10
  unreachable

17:                                               ; No predecessors!
  br label %18

18:                                               ; preds = %17, %1
  %19 = load ptr, ptr %2, align 8
  %20 = call i64 @gin_extract_tsquery(ptr noundef %19)
  ret i64 %20
}