; Function Attrs: nounwind uwtable
define dso_local i64 @gin_extract_tsquery_5args(ptr noundef readonly captures(none) %0) local_unnamed_addr #0 {
  %2 = getelementptr inbounds nuw i8, ptr %0, i64 30
  %3 = load i16, ptr %2, align 2
  %4 = icmp slt i16 %3, 7
  br i1 %4, label %5, label %8

5:                                                ; preds = %1
  %6 = tail call zeroext i1 @errstart_cold(i32 noundef 21, ptr noundef null) #7
  tail call void @llvm.assume(i1 %6)
  %7 = tail call i32 (ptr, ...) @errmsg_internal(ptr noundef nonnull @.str.2) #6
  tail call void @errfinish(ptr noundef nonnull @.str.1, i32 noundef 319, ptr noundef nonnull @__func__.gin_extract_tsquery_5args) #6
  unreachable

8:                                                ; preds = %1
  %9 = tail call i64 @gin_extract_tsquery(ptr noundef nonnull %0)
  ret i64 %9
}